target datalayout = "e-m:e-p270:32:32-p271:32:32-p272:64:64-i64:64-i128:128-f80:128-n8:16:32:64-S128"
target triple = "x86_64-pc-linux-gnu"

%struct.Agi_Man_t_ = type { ptr, ptr, i32, i32, i32, i32, i32, %struct.Vec_Int_t_, %struct.Vec_Int_t_, ptr, ptr, ptr, ptr, ptr, ptr }
%struct.Vec_Int_t_ = type { i32, i32, ptr }

; Function Attrs: nounwind uwtable
define void @Agi_ManFree(ptr noundef %0) #0 {
  %2 = alloca ptr, align 8
  store ptr %0, ptr %2, align 8, !tbaa !7
  %3 = load ptr, ptr %2, align 8, !tbaa !7
  %4 = getelementptr inbounds nuw %struct.Agi_Man_t_, ptr %3, i32 0, i32 9
  %5 = load ptr, ptr %4, align 8, !tbaa !16
  %6 = icmp ne ptr %5, null
  br i1 %6, label %7, label %13

7:                                                ; preds = %1
  %8 = load ptr, ptr %2, align 8, !tbaa !7
  %9 = getelementptr inbounds nuw %struct.Agi_Man_t_, ptr %8, i32 0, i32 9
  %10 = load ptr, ptr %9, align 8, !tbaa !16
  call void @free(ptr noundef %10) #10
  %11 = load ptr, ptr %2, align 8, !tbaa !7
  %12 = getelementptr inbounds nuw %struct.Agi_Man_t_, ptr %11, i32 0, i32 9
  store ptr null, ptr %12, align 8, !tbaa !16
  br label %14

13:                                               ; preds = %1
  br label %14

14:                                               ; preds = %13, %7
  %15 = load ptr, ptr %2, align 8, !tbaa !7
  %16 = getelementptr inbounds nuw %struct.Agi_Man_t_, ptr %15, i32 0, i32 11
  %17 = load ptr, ptr %16, align 8, !tbaa !17
  %18 = icmp ne ptr %17, null
  br i1 %18, label %19, label %25

19:                                               ; preds = %14
  %20 = load ptr, ptr %2, align 8, !tbaa !7
  %21 = getelementptr inbounds nuw %struct.Agi_Man_t_, ptr %20, i32 0, i32 11
  %22 = load ptr, ptr %21, align 8, !tbaa !17
  call void @free(ptr noundef %22) #10
  %23 = load ptr, ptr %2, align 8, !tbaa !7
  %24 = getelementptr inbounds nuw %struct.Agi_Man_t_, ptr %23, i32 0, i32 11
  store ptr null, ptr %24, align 8, !tbaa !17
  br label %26

25:                                               ; preds = %14
  br label %26

26:                                               ; preds = %25, %19
  %27 = load ptr, ptr %2, align 8, !tbaa !7
  %28 = getelementptr inbounds nuw %struct.Agi_Man_t_, ptr %27, i32 0, i32 7
  %29 = getelementptr inbounds nuw %struct.Vec_Int_t_, ptr %28, i32 0, i32 2
  %30 = load ptr, ptr %29, align 8, !tbaa !21
  %31 = icmp ne ptr %30, null
  br i1 %31, label %32, label %40

32:                                               ; preds = %26
  %33 = load ptr, ptr %2, align 8, !tbaa !7
  %34 = getelementptr inbounds nuw %struct.Agi_Man_t_, ptr %33, i32 0, i32 7
  %35 = getelementptr inbounds nuw %struct.Vec_Int_t_, ptr %34, i32 0, i32 2
  %36 = load ptr, ptr %35, align 8, !tbaa !21
  call void @free(ptr noundef %36) #10
  %37 = load ptr, ptr %2, align 8, !tbaa !7
  %38 = getelementptr inbounds nuw %struct.Agi_Man_t_, ptr %37, i32 0, i32 7
  %39 = getelementptr inbounds nuw %struct.Vec_Int_t_, ptr %38, i32 0, i32 2
  store ptr null, ptr %39, align 8, !tbaa !21
  br label %41

40:                                               ; preds = %26
  br label %41

41:                                               ; preds = %40, %32
  %42 = load ptr, ptr %2, align 8, !tbaa !7
  %43 = getelementptr inbounds nuw %struct.Agi_Man_t_, ptr %42, i32 0, i32 8
  %44 = getelementptr inbounds nuw %struct.Vec_Int_t_, ptr %43, i32 0, i32 2
  %45 = load ptr, ptr %44, align 8, !tbaa !22
  %46 = icmp ne ptr %45, null
  br i1 %46, label %47, label %55

47:                                               ; preds = %41
  %48 = load ptr, ptr %2, align 8, !tbaa !7
  %49 = getelementptr inbounds nuw %struct.Agi_Man_t_, ptr %48, i32 0, i32 8
  %50 = getelementptr inbounds nuw %struct.Vec_Int_t_, ptr %49, i32 0, i32 2
  %51 = load ptr, ptr %50, align 8, !tbaa !22
  call void @free(ptr noundef %51) #10
  %52 = load ptr, ptr %2, align 8, !tbaa !7
  %53 = getelementptr inbounds nuw %struct.Agi_Man_t_, ptr %52, i32 0, i32 8
  %54 = getelementptr inbounds nuw %struct.Vec_Int_t_, ptr %53, i32 0, i32 2
  store ptr null, ptr %54, align 8, !tbaa !22
  br label %56

55:                                               ; preds = %41
  br label %56

56:                                               ; preds = %55, %47
  %57 = load ptr, ptr %2, align 8, !tbaa !7
  %58 = icmp ne ptr %57, null
  br i1 %58, label %59, label %61

59:                                               ; preds = %56
  %60 = load ptr, ptr %2, align 8, !tbaa !7
  call void @free(ptr noundef %60) #10
  store ptr null, ptr %2, align 8, !tbaa !7
  br label %62

61:                                               ; preds = %56
  br label %62

62:                                               ; preds = %61, %59
  ret void
}