; Function Attrs: mustprogress nounwind willreturn uwtable
define void @Agi_ManFree(ptr noundef captures(none) %0) local_unnamed_addr #3 {
  %2 = getelementptr inbounds nuw i8, ptr %0, i64 72
  %3 = load ptr, ptr %2, align 8, !tbaa !13
  %.not = icmp eq ptr %3, null
  br i1 %.not, label %5, label %4

4:                                                ; preds = %1
  tail call void @free(ptr noundef nonnull %3) #17
  store ptr null, ptr %2, align 8, !tbaa !13
  br label %5

5:                                                ; preds = %1, %4
  %6 = getelementptr inbounds nuw i8, ptr %0, i64 88
  %7 = load ptr, ptr %6, align 8, !tbaa !14
  %.not18 = icmp eq ptr %7, null
  br i1 %.not18, label %9, label %8

8:                                                ; preds = %5
  tail call void @free(ptr noundef nonnull %7) #17
  store ptr null, ptr %6, align 8, !tbaa !14
  br label %9

9:                                                ; preds = %5, %8
  %10 = getelementptr inbounds nuw i8, ptr %0, i64 48
  %11 = load ptr, ptr %10, align 8, !tbaa !18
  %.not19 = icmp eq ptr %11, null
  br i1 %.not19, label %13, label %12

12:                                               ; preds = %9
  tail call void @free(ptr noundef nonnull %11) #17
  store ptr null, ptr %10, align 8, !tbaa !18
  br label %13

13:                                               ; preds = %9, %12
  %14 = getelementptr inbounds nuw i8, ptr %0, i64 64
  %15 = load ptr, ptr %14, align 8, !tbaa !19
  %.not20 = icmp eq ptr %15, null
  br i1 %.not20, label %17, label %16

16:                                               ; preds = %13
  tail call void @free(ptr noundef nonnull %15) #17
  br label %17

17:                                               ; preds = %13, %16
  tail call void @free(ptr noundef nonnull %0) #17
  ret void
}